; Function Attrs: mustprogress uwtable
define hidden void @_ZN4lean12collect_usedERKNS_4exprERSt13unordered_setINS_4nameENS_12name_hash_fnENS_10name_eq_fnESaIS4_EE(ptr noundef nonnull align 8 dereferenceable(8) %0, ptr noundef nonnull align 8 dereferenceable(56) %1) local_unnamed_addr #0 personality ptr @__gxx_personality_v0 {
  %3 = alloca %"class.std::function", align 8
  %4 = load ptr, ptr %0, align 8, !tbaa !3
  %5 = getelementptr i8, ptr %4, i64 4
  %.val.i.i = load i32, ptr %5, align 4
  %6 = lshr i32 %.val.i.i, 13
  %7 = and i32 %6, 2040
  %8 = getelementptr inbounds nuw i8, ptr %4, i64 8
  %9 = zext nneg i32 %7 to i64
  %10 = getelementptr inbounds nuw i8, ptr %8, i64 %9
  %11 = load i64, ptr %10, align 8, !tbaa !71
  %12 = and i64 %11, 1099511627776
  %.not = icmp eq i64 %12, 0
  br i1 %.not, label %25, label %13

13:                                               ; preds = %2
  call void @llvm.lifetime.start.p0(i64 32, ptr nonnull %3) #25
  %14 = ptrtoint ptr %1 to i64
  %15 = getelementptr inbounds nuw i8, ptr %3, i64 16
  %16 = getelementptr inbounds nuw i8, ptr %3, i64 24
  %17 = getelementptr inbounds nuw i8, ptr %3, i64 8
  store i64 0, ptr %17, align 8
  store i64 %14, ptr %3, align 8, !tbaa !125
  store ptr @"_ZNSt17_Function_handlerIFbRKN4lean4exprEjEZNS0_12collect_usedES3_RSt13unordered_setINS0_4nameENS0_12name_hash_fnENS0_10name_eq_fnESaIS6_EEE3$_0E9_M_invokeERKSt9_Any_dataS3_Oj", ptr %16, align 8, !tbaa !75
  store ptr @"_ZNSt17_Function_handlerIFbRKN4lean4exprEjEZNS0_12collect_usedES3_RSt13unordered_setINS0_4nameENS0_12name_hash_fnENS0_10name_eq_fnESaIS6_EEE3$_0E10_M_managerERSt9_Any_dataRKSE_St18_Manager_operation", ptr %15, align 8, !tbaa !78
  invoke void @_ZN4lean8for_eachERKNS_4exprEOSt8functionIFbS2_jEE(ptr noundef nonnull align 8 dereferenceable(8) %0, ptr noundef nonnull align 8 dereferenceable(32) %3)
          to label %18 unwind label %26

18:                                               ; preds = %13
  %19 = load ptr, ptr %15, align 8, !tbaa !78
  %.not.i = icmp eq ptr %19, null
  br i1 %.not.i, label %_ZNSt14_Function_baseD2Ev.exit, label %20

20:                                               ; preds = %18
  %21 = invoke noundef zeroext i1 %19(ptr noundef nonnull align 8 dereferenceable(32) %3, ptr noundef nonnull align 8 dereferenceable(32) %3, i32 noundef 3)
          to label %_ZNSt14_Function_baseD2Ev.exit unwind label %22

22:                                               ; preds = %20
  %23 = landingpad { ptr, i32 }
          catch ptr null
  %24 = extractvalue { ptr, i32 } %23, 0
  call void @__clang_call_terminate(ptr %24) #26
  unreachable

_ZNSt14_Function_baseD2Ev.exit:                   ; preds = %18, %20
  call void @llvm.lifetime.end.p0(i64 32, ptr nonnull %3) #25
  br label %25

25:                                               ; preds = %2, %_ZNSt14_Function_baseD2Ev.exit
  ret void

26:                                               ; preds = %13
  %27 = landingpad { ptr, i32 }
          cleanup
  %28 = load ptr, ptr %15, align 8, !tbaa !78
  %.not.i4 = icmp eq ptr %28, null
  br i1 %.not.i4, label %_ZNSt14_Function_baseD2Ev.exit5, label %29

29:                                               ; preds = %26
  %30 = invoke noundef zeroext i1 %28(ptr noundef nonnull align 8 dereferenceable(32) %3, ptr noundef nonnull align 8 dereferenceable(32) %3, i32 noundef 3)
          to label %_ZNSt14_Function_baseD2Ev.exit5 unwind label %31

31:                                               ; preds = %29
  %32 = landingpad { ptr, i32 }
          catch ptr null
  %33 = extractvalue { ptr, i32 } %32, 0
  call void @__clang_call_terminate(ptr %33) #26
  unreachable

_ZNSt14_Function_baseD2Ev.exit5:                  ; preds = %26, %29
  call void @llvm.lifetime.end.p0(i64 32, ptr nonnull %3) #25
  resume { ptr, i32 } %27
}